; Function Attrs: mustprogress nounwind uwtable
define dso_local void @_ZN4node9inspector21ParentInspectorHandleC2EmRKNSt7__cxx1112basic_stringIcSt11char_traitsIcESaIcEEESt10shared_ptrINS0_16MainThreadHandleEEbS9_(ptr noundef nonnull align 8 dereferenceable(96) %this, i64 noundef %id, ptr noundef nonnull align 8 dereferenceable(32) %url, ptr nocapture noundef readonly %parent_thread, i1 noundef zeroext %wait_for_connect, ptr noundef nonnull align 8 dereferenceable(32) %name) unnamed_addr #0 align 2 {
entry:
  store i64 %id, ptr %this, align 8
  %url_ = getelementptr inbounds i8, ptr %this, i64 8
  tail call void @_ZNSt7__cxx1112basic_stringIcSt11char_traitsIcESaIcEEC1ERKS4_(ptr noundef nonnull align 8 dereferenceable(32) %url_, ptr noundef nonnull align 8 dereferenceable(32) %url) #12
  %parent_thread_ = getelementptr inbounds i8, ptr %this, i64 40
  %0 = load ptr, ptr %parent_thread, align 8
  store ptr %0, ptr %parent_thread_, align 8
  %_M_refcount.i.i = getelementptr inbounds i8, ptr %this, i64 48
  %_M_refcount3.i.i = getelementptr inbounds i8, ptr %parent_thread, i64 8
  %1 = load ptr, ptr %_M_refcount3.i.i, align 8
  store ptr %1, ptr %_M_refcount.i.i, align 8
  %cmp.not.i.i.i = icmp eq ptr %1, null
  br i1 %cmp.not.i.i.i, label %_ZNSt10shared_ptrIN4node9inspector16MainThreadHandleEEC2ERKS3_.exit, label %if.then.i.i.i

if.then.i.i.i:                                    ; preds = %entry
  %_M_use_count.i.i.i.i = getelementptr inbounds i8, ptr %1, i64 8
  %2 = load i8, ptr @__libc_single_threaded, align 1
  %tobool.i.not.i.i.i.i = icmp eq i8 %2, 0
  br i1 %tobool.i.not.i.i.i.i, label %if.else.i.i.i.i.i, label %if.then.i.i.i.i.i

if.then.i.i.i.i.i:                                ; preds = %if.then.i.i.i
  %3 = load i32, ptr %_M_use_count.i.i.i.i, align 4
  %add.i.i.i.i.i = add nsw i32 %3, 1
  store i32 %add.i.i.i.i.i, ptr %_M_use_count.i.i.i.i, align 4
  br label %_ZNSt10shared_ptrIN4node9inspector16MainThreadHandleEEC2ERKS3_.exit

if.else.i.i.i.i.i:                                ; preds = %if.then.i.i.i
  %4 = atomicrmw volatile add ptr %_M_use_count.i.i.i.i, i32 1 acq_rel, align 4
  br label %_ZNSt10shared_ptrIN4node9inspector16MainThreadHandleEEC2ERKS3_.exit

_ZNSt10shared_ptrIN4node9inspector16MainThreadHandleEEC2ERKS3_.exit: ; preds = %entry, %if.then.i.i.i.i.i, %if.else.i.i.i.i.i
  %frombool = zext i1 %wait_for_connect to i8
  %wait_ = getelementptr inbounds i8, ptr %this, i64 56
  store i8 %frombool, ptr %wait_, align 8
  %name_ = getelementptr inbounds i8, ptr %this, i64 64
  tail call void @_ZNSt7__cxx1112basic_stringIcSt11char_traitsIcESaIcEEC1ERKS4_(ptr noundef nonnull align 8 dereferenceable(32) %name_, ptr noundef nonnull align 8 dereferenceable(32) %name) #12
  ret void
}